target datalayout = "e-m:e-p270:32:32-p271:32:32-p272:64:64-i64:64-i128:128-f80:128-n8:16:32:64-S128"
target triple = "x86_64-pc-linux-gnu"

@hf_afp_map_id = internal global i32 0, align 4
@hf_afp_UUID = internal global i32 0, align 4

; Function Attrs: null_pointer_is_valid sspstrong uwtable
define internal i32 @dissect_reply_afp_map_name(ptr noundef %0, ptr noundef %1, ptr noundef %2, i32 noundef %3) #1 {
  %5 = alloca ptr, align 8
  %6 = alloca ptr, align 8
  %7 = alloca ptr, align 8
  %8 = alloca i32, align 4
  %9 = alloca i32, align 4
  store ptr %0, ptr %5, align 8
  store ptr %1, ptr %6, align 8
  store ptr %2, ptr %7, align 8
  store i32 %3, ptr %8, align 4
  call void @llvm.lifetime.start.p0(i64 4, ptr %9) #8
  %10 = load ptr, ptr %5, align 8
  %11 = call i32 @tvb_reported_length(ptr noundef %10)
  store i32 %11, ptr %9, align 4
  %12 = load i32, ptr %9, align 4
  %13 = icmp eq i32 %12, 16
  br i1 %13, label %14, label %22

14:                                               ; preds = %4
  %15 = load ptr, ptr %7, align 8
  %16 = load i32, ptr @hf_afp_UUID, align 4
  %17 = load ptr, ptr %5, align 8
  %18 = load i32, ptr %8, align 4
  %19 = call ptr @proto_tree_add_item(ptr noundef %15, i32 noundef %16, ptr noundef %17, i32 noundef %18, i32 noundef 16, i32 noundef 0)
  %20 = load i32, ptr %8, align 4
  %21 = add i32 %20, 16
  store i32 %21, ptr %8, align 4
  br label %30

22:                                               ; preds = %4
  %23 = load ptr, ptr %7, align 8
  %24 = load i32, ptr @hf_afp_map_id, align 4
  %25 = load ptr, ptr %5, align 8
  %26 = load i32, ptr %8, align 4
  %27 = call ptr @proto_tree_add_item(ptr noundef %23, i32 noundef %24, ptr noundef %25, i32 noundef %26, i32 noundef 4, i32 noundef 0)
  %28 = load i32, ptr %8, align 4
  %29 = add i32 %28, 4
  store i32 %29, ptr %8, align 4
  br label %30

30:                                               ; preds = %22, %14
  %31 = load i32, ptr %8, align 4
  call void @llvm.lifetime.end.p0(i64 4, ptr %9) #8
  ret i32 %31
}