; Function Attrs: null_pointer_is_valid sspstrong uwtable
define internal fastcc noundef range(i32 4, 17) i32 @dissect_reply_afp_map_name(ptr noundef %0, ptr noundef %1) unnamed_addr #1 {
  %3 = tail call i32 @tvb_reported_length(ptr noundef %0)
  %4 = icmp eq i32 %3, 16
  %. = select i1 %4, i32 16, i32 4
  %hf_afp_UUID.val = load i32, ptr @hf_afp_UUID, align 4
  %hf_afp_map_id.val = load i32, ptr @hf_afp_map_id, align 4
  %5 = select i1 %4, i32 %hf_afp_UUID.val, i32 %hf_afp_map_id.val
  %6 = tail call ptr @proto_tree_add_item(ptr noundef %1, i32 noundef %5, ptr noundef %0, i32 noundef 0, i32 noundef %., i32 noundef 0)
  ret i32 %.
}